target datalayout = "e-m:e-p270:32:32-p271:32:32-p272:64:64-i64:64-i128:128-f80:128-n8:16:32:64-S128"
target triple = "x86_64-pc-linux-gnu"

%"struct.cv::HWFeatures" = type { [513 x i8] }
%"struct.cv::details::FPDenormalsModeState" = type { [16 x i32] }

@_ZN2cvL15featuresEnabledE = internal global %"struct.cv::HWFeatures" zeroinitializer, align 1

; Function Attrs: mustprogress nounwind uwtable
define void @_ZN2cv7details24setFPDenormalsIgnoreHintEbRNS0_20FPDenormalsModeStateE(i1 noundef zeroext %0, ptr noundef nonnull align 4 dereferenceable(64) %1) #5 {
  %3 = alloca i8, align 1
  %4 = alloca ptr, align 8
  %5 = alloca i32, align 4
  %6 = alloca i32, align 4
  %7 = alloca i32, align 4
  %8 = alloca i32, align 4
  %9 = alloca i32, align 4
  %10 = alloca i32, align 4
  %11 = alloca i32, align 4
  %12 = zext i1 %0 to i8
  store i8 %12, ptr %3, align 1, !tbaa !8
  store ptr %1, ptr %4, align 8, !tbaa !190
  call void @llvm.lifetime.start.p0(i64 4, ptr %5) #3
  store i32 32768, ptr %5, align 4, !tbaa !29
  call void @llvm.lifetime.start.p0(i64 4, ptr %6) #3
  %13 = load i8, ptr %3, align 1, !tbaa !8, !range !30, !noundef !31
  %14 = trunc i8 %13 to i1
  %15 = select i1 %14, i32 32768, i32 0
  store i32 %15, ptr %6, align 4, !tbaa !29
  %16 = load i8, ptr getelementptr inbounds nuw ([513 x i8], ptr @_ZN2cvL15featuresEnabledE, i64 0, i64 4), align 1, !tbaa !8, !range !30, !noundef !31
  %17 = trunc i8 %16 to i1
  br i1 %17, label %18, label %26

18:                                               ; preds = %2
  %19 = load i32, ptr %5, align 4, !tbaa !29
  %20 = or i32 %19, 64
  store i32 %20, ptr %5, align 4, !tbaa !29
  %21 = load i8, ptr %3, align 1, !tbaa !8, !range !30, !noundef !31
  %22 = trunc i8 %21 to i1
  %23 = select i1 %22, i32 64, i32 0
  %24 = load i32, ptr %6, align 4, !tbaa !29
  %25 = or i32 %24, %23
  store i32 %25, ptr %6, align 4, !tbaa !29
  br label %26

26:                                               ; preds = %18, %2
  call void @llvm.lifetime.start.p0(i64 4, ptr %7) #3
  call void @llvm.x86.sse.stmxcsr(ptr %8)
  %27 = load i32, ptr %8, align 4
  store i32 %27, ptr %7, align 4, !tbaa !29
  call void @llvm.lifetime.start.p0(i64 4, ptr %9) #3
  %28 = load i32, ptr %7, align 4, !tbaa !29
  %29 = load i32, ptr %5, align 4, !tbaa !29
  %30 = and i32 %28, %29
  store i32 %30, ptr %9, align 4, !tbaa !29
  call void @llvm.lifetime.start.p0(i64 4, ptr %10) #3
  %31 = load i32, ptr %7, align 4, !tbaa !29
  %32 = load i32, ptr %5, align 4, !tbaa !29
  %33 = xor i32 %32, -1
  %34 = and i32 %31, %33
  %35 = load i32, ptr %6, align 4, !tbaa !29
  %36 = or i32 %34, %35
  store i32 %36, ptr %10, align 4, !tbaa !29
  %37 = load i32, ptr %5, align 4, !tbaa !29
  %38 = load ptr, ptr %4, align 8, !tbaa !190
  %39 = getelementptr inbounds nuw %"struct.cv::details::FPDenormalsModeState", ptr %38, i32 0, i32 0
  %40 = getelementptr inbounds [16 x i32], ptr %39, i64 0, i64 0
  store i32 %37, ptr %40, align 4, !tbaa !29
  %41 = load i32, ptr %9, align 4, !tbaa !29
  %42 = load ptr, ptr %4, align 8, !tbaa !190
  %43 = getelementptr inbounds nuw %"struct.cv::details::FPDenormalsModeState", ptr %42, i32 0, i32 0
  %44 = getelementptr inbounds [16 x i32], ptr %43, i64 0, i64 1
  store i32 %41, ptr %44, align 4, !tbaa !29
  %45 = load i32, ptr %10, align 4, !tbaa !29
  store i32 %45, ptr %11, align 4
  call void @llvm.x86.sse.ldmxcsr(ptr %11)
  call void @llvm.lifetime.end.p0(i64 4, ptr %10) #3
  call void @llvm.lifetime.end.p0(i64 4, ptr %9) #3
  call void @llvm.lifetime.end.p0(i64 4, ptr %7) #3
  call void @llvm.lifetime.end.p0(i64 4, ptr %6) #3
  call void @llvm.lifetime.end.p0(i64 4, ptr %5) #3
  ret void
}