; Function Attrs: mustprogress nounwind uwtable
define void @_ZN2cv7details24setFPDenormalsIgnoreHintEbRNS0_20FPDenormalsModeStateE(i1 noundef zeroext %0, ptr noundef nonnull writeonly align 4 captures(none) dereferenceable(64) initializes((0, 8)) %1) local_unnamed_addr #9 {
  %3 = alloca i32, align 4
  %4 = alloca i32, align 4
  %5 = select i1 %0, i32 32768, i32 0
  %6 = load i8, ptr getelementptr inbounds nuw (i8, ptr @_ZN2cvL15featuresEnabledE, i64 4), align 1, !tbaa !14, !range !80, !noundef !81
  %7 = trunc nuw i8 %6 to i1
  %8 = select i1 %0, i32 32832, i32 0
  %spec.select = select i1 %7, i32 %8, i32 %5
  %spec.select14 = select i1 %7, i32 32832, i32 32768
  call void @llvm.x86.sse.stmxcsr(ptr nonnull %3)
  %9 = load i32, ptr %3, align 4
  %10 = and i32 %9, %spec.select14
  %11 = xor i32 %spec.select14, -1
  %12 = and i32 %9, %11
  %13 = or i32 %12, %spec.select
  store i32 %spec.select14, ptr %1, align 4, !tbaa !83
  %14 = getelementptr inbounds nuw i8, ptr %1, i64 4
  store i32 %10, ptr %14, align 4, !tbaa !83
  store i32 %13, ptr %4, align 4
  call void @llvm.x86.sse.ldmxcsr(ptr nonnull %4)
  ret void
}